SF:C:\Tony\Code\Rust\ansirs\src\ansi\ansi.rs
FN:42,_RNvXs3_NtNtCs26kq9IpCjkh_6ansirs4ansi4ansiNtB5_4AnsiNtNtCs8eo1FWXo0LR_4core5clone5Clone5cloneB9_
FN:42,_RINvXs9_NtNtCs26kq9IpCjkh_6ansirs4ansi4ansiNtB6_4AnsiNtNtCs8eo1FWXo0LR_4core4hash4Hash4hashpEBa_
FN:412,_RNvNtNtNtCs26kq9IpCjkh_6ansirs4ansi4ansi5testss_7derives
FN:347,_RNvNtNtNtCs26kq9IpCjkh_6ansirs4ansi4ansi5testss_9the_works
FN:367,_RNCNvNtNtNtCs26kq9IpCjkh_6ansirs4ansi4ansi5tests16default_is_empty0B9_
FN:368,_RNvNtNtNtCs26kq9IpCjkh_6ansirs4ansi4ansi5testss_16default_is_empty
FN:393,_RNCNvNtNtNtCs26kq9IpCjkh_6ansirs4ansi4ansi5tests13set_and_clear0B9_
FN:422,_RNCNvNtNtNtCs26kq9IpCjkh_6ansirs4ansi4ansi5tests10paint_text0B9_
FN:335,_RNCNvNtNtNtCs26kq9IpCjkh_6ansirs4ansi4ansi5tests13static_colors0B9_
FN:394,_RNvNtNtNtCs26kq9IpCjkh_6ansirs4ansi4ansi5testss_13set_and_clear
FN:373,_RNCNvNtNtNtCs26kq9IpCjkh_6ansirs4ansi4ansi5tests11solo_styles0B9_
FN:423,_RNvNtNtNtCs26kq9IpCjkh_6ansirs4ansi4ansi5testss_10paint_text
FN:336,_RNvNtNtNtCs26kq9IpCjkh_6ansirs4ansi4ansi5testss_13static_colors
FN:374,_RNvNtNtNtCs26kq9IpCjkh_6ansirs4ansi4ansi5testss_11solo_styles
FN:411,_RNCNvNtNtNtCs26kq9IpCjkh_6ansirs4ansi4ansi5tests7derives0B9_
FN:346,_RNCNvNtNtNtCs26kq9IpCjkh_6ansirs4ansi4ansi5tests9the_works0B9_
FN:206,_RNvMs_NtNtCs26kq9IpCjkh_6ansirs4ansi4ansiNtB4_4Ansi6strike
FN:114,_RNvMs_NtNtCs26kq9IpCjkh_6ansirs4ansi4ansiNtB4_4Ansi5clear
FN:42,_RNvXs2_NtNtCs26kq9IpCjkh_6ansirs4ansi4ansiNtB5_4AnsiNtNtCs8eo1FWXo0LR_4core3fmt5Debug3fmt
FN:146,_RINvMs_NtNtCs26kq9IpCjkh_6ansirs4ansi4ansiNtB5_4Ansi2bgThhhEEB9_
FN:197,_RNvMs_NtNtCs26kq9IpCjkh_6ansirs4ansi4ansiNtB4_4Ansi7reverse
FN:131,_RINvMs_NtNtCs26kq9IpCjkh_6ansirs4ansi4ansiNtB5_4Ansi2fgThhhEEB9_
FN:170,_RNvMs_NtNtCs26kq9IpCjkh_6ansirs4ansi4ansiNtB4_4Ansi9underline
FN:42,_RNvXs6_NtNtCs26kq9IpCjkh_6ansirs4ansi4ansiNtB5_4AnsiNtNtCs8eo1FWXo0LR_4core3cmp9PartialEq2eqB9_
FN:76,_RINvMNtNtCs26kq9IpCjkh_6ansirs4ansi4ansiNtB3_4Ansi7from_bgThhhEEB7_
FN:66,_RINvMNtNtCs26kq9IpCjkh_6ansirs4ansi4ansiNtB3_4Ansi7from_fgThhhEEB7_
FN:104,_RNvMNtNtCs26kq9IpCjkh_6ansirs4ansi4ansiNtB2_4Ansi5reset
FN:56,_RNvMNtNtCs26kq9IpCjkh_6ansirs4ansi4ansiNtB2_4Ansi3new
FN:179,_RNvMs_NtNtCs26kq9IpCjkh_6ansirs4ansi4ansiNtB4_4Ansi6italic
FN:66,_RINvMNtNtCs26kq9IpCjkh_6ansirs4ansi4ansiNtB3_4Ansi7from_fgNtNtNtB7_5color5color5ColorEB7_
FN:140,_RNvMs_NtNtCs26kq9IpCjkh_6ansirs4ansi4ansiNtB4_4Ansi8clear_fg
FN:188,_RNvMs_NtNtCs26kq9IpCjkh_6ansirs4ansi4ansiNtB4_4Ansi5blink
FN:161,_RNvMs_NtNtCs26kq9IpCjkh_6ansirs4ansi4ansiNtB4_4Ansi4bold
FN:98,_RNvMNtNtCs26kq9IpCjkh_6ansirs4ansi4ansiNtB2_4Ansi4blue
FN:86,_RNvMNtNtCs26kq9IpCjkh_6ansirs4ansi4ansiNtB2_4Ansi3red
FN:319,_RNvXs0_NtNtCs26kq9IpCjkh_6ansirs4ansi4ansiNtB5_4AnsiNtNtCs8eo1FWXo0LR_4core7default7Default7default
FN:218,_RNvMs_NtNtCs26kq9IpCjkh_6ansirs4ansi4ansiNtB4_4Ansi12build_string
FN:125,_RNvMs_NtNtCs26kq9IpCjkh_6ansirs4ansi4ansiNtB4_4Ansi10is_default
FN:66,_RINvMNtNtCs26kq9IpCjkh_6ansirs4ansi4ansiNtB3_4Ansi7from_fgNtNtNtB7_5color6colors6ColorsEB7_
FN:309,_RNvMs_NtNtCs26kq9IpCjkh_6ansirs4ansi4ansiNtB4_4Ansi10paint_text
FN:155,_RNvMs_NtNtCs26kq9IpCjkh_6ansirs4ansi4ansiNtB4_4Ansi8clear_bg
FN:42,_RNvXs6_NtNtCs26kq9IpCjkh_6ansirs4ansi4ansiNtB5_4AnsiNtNtCs8eo1FWXo0LR_4core3cmp9PartialEq2neB9_
FN:325,_RNvXs1_NtNtCs26kq9IpCjkh_6ansirs4ansi4ansiNtB5_4AnsiNtNtCs8eo1FWXo0LR_4core3fmt7Display3fmt
FN:92,_RNvMNtNtCs26kq9IpCjkh_6ansirs4ansi4ansiNtB2_4Ansi5green
FNDA:0,_RNvXs3_NtNtCs26kq9IpCjkh_6ansirs4ansi4ansiNtB5_4AnsiNtNtCs8eo1FWXo0LR_4core5clone5Clone5cloneB9_
FNDA:0,_RINvXs9_NtNtCs26kq9IpCjkh_6ansirs4ansi4ansiNtB6_4AnsiNtNtCs8eo1FWXo0LR_4core4hash4Hash4hashpEBa_
FNDA:1,_RNvNtNtNtCs26kq9IpCjkh_6ansirs4ansi4ansi5testss_7derives
FNDA:1,_RNvNtNtNtCs26kq9IpCjkh_6ansirs4ansi4ansi5testss_9the_works
FNDA:1,_RNCNvNtNtNtCs26kq9IpCjkh_6ansirs4ansi4ansi5tests16default_is_empty0B9_
FNDA:1,_RNvNtNtNtCs26kq9IpCjkh_6ansirs4ansi4ansi5testss_16default_is_empty
FNDA:1,_RNCNvNtNtNtCs26kq9IpCjkh_6ansirs4ansi4ansi5tests13set_and_clear0B9_
FNDA:1,_RNCNvNtNtNtCs26kq9IpCjkh_6ansirs4ansi4ansi5tests10paint_text0B9_
FNDA:1,_RNCNvNtNtNtCs26kq9IpCjkh_6ansirs4ansi4ansi5tests13static_colors0B9_
FNDA:1,_RNvNtNtNtCs26kq9IpCjkh_6ansirs4ansi4ansi5testss_13set_and_clear
FNDA:1,_RNCNvNtNtNtCs26kq9IpCjkh_6ansirs4ansi4ansi5tests11solo_styles0B9_
FNDA:1,_RNvNtNtNtCs26kq9IpCjkh_6ansirs4ansi4ansi5testss_10paint_text
FNDA:1,_RNvNtNtNtCs26kq9IpCjkh_6ansirs4ansi4ansi5testss_13static_colors
FNDA:1,_RNvNtNtNtCs26kq9IpCjkh_6ansirs4ansi4ansi5testss_11solo_styles
FNDA:1,_RNCNvNtNtNtCs26kq9IpCjkh_6ansirs4ansi4ansi5tests7derives0B9_
FNDA:1,_RNCNvNtNtNtCs26kq9IpCjkh_6ansirs4ansi4ansi5tests9the_works0B9_
FNDA:4,_RNvMs_NtNtCs26kq9IpCjkh_6ansirs4ansi4ansiNtB4_4Ansi6strike
FNDA:2,_RNvMs_NtNtCs26kq9IpCjkh_6ansirs4ansi4ansiNtB4_4Ansi5clear
FNDA:0,_RNvXs2_NtNtCs26kq9IpCjkh_6ansirs4ansi4ansiNtB5_4AnsiNtNtCs8eo1FWXo0LR_4core3fmt5Debug3fmt
FNDA:4,_RINvMs_NtNtCs26kq9IpCjkh_6ansirs4ansi4ansiNtB5_4Ansi2bgThhhEEB9_
FNDA:2,_RNvMs_NtNtCs26kq9IpCjkh_6ansirs4ansi4ansiNtB4_4Ansi7reverse
FNDA:4,_RINvMs_NtNtCs26kq9IpCjkh_6ansirs4ansi4ansiNtB5_4Ansi2fgThhhEEB9_
FNDA:6,_RNvMs_NtNtCs26kq9IpCjkh_6ansirs4ansi4ansiNtB4_4Ansi9underline
FNDA:3,_RNvXs6_NtNtCs26kq9IpCjkh_6ansirs4ansi4ansiNtB5_4AnsiNtNtCs8eo1FWXo0LR_4core3cmp9PartialEq2eqB9_
FNDA:3,_RINvMNtNtCs26kq9IpCjkh_6ansirs4ansi4ansiNtB3_4Ansi7from_bgThhhEEB7_
FNDA:11,_RINvMNtNtCs26kq9IpCjkh_6ansirs4ansi4ansiNtB3_4Ansi7from_fgThhhEEB7_
FNDA:6,_RNvMNtNtCs26kq9IpCjkh_6ansirs4ansi4ansiNtB2_4Ansi5reset
FNDA:20,_RNvMNtNtCs26kq9IpCjkh_6ansirs4ansi4ansiNtB2_4Ansi3new
FNDA:4,_RNvMs_NtNtCs26kq9IpCjkh_6ansirs4ansi4ansiNtB4_4Ansi6italic
FNDA:3,_RINvMNtNtCs26kq9IpCjkh_6ansirs4ansi4ansiNtB3_4Ansi7from_fgNtNtNtB7_5color5color5ColorEB7_
FNDA:1,_RNvMs_NtNtCs26kq9IpCjkh_6ansirs4ansi4ansiNtB4_4Ansi8clear_fg
FNDA:2,_RNvMs_NtNtCs26kq9IpCjkh_6ansirs4ansi4ansiNtB4_4Ansi5blink
FNDA:5,_RNvMs_NtNtCs26kq9IpCjkh_6ansirs4ansi4ansiNtB4_4Ansi4bold
FNDA:1,_RNvMNtNtCs26kq9IpCjkh_6ansirs4ansi4ansiNtB2_4Ansi4blue
FNDA:2,_RNvMNtNtCs26kq9IpCjkh_6ansirs4ansi4ansiNtB2_4Ansi3red
FNDA:1,_RNvXs0_NtNtCs26kq9IpCjkh_6ansirs4ansi4ansiNtB5_4AnsiNtNtCs8eo1FWXo0LR_4core7default7Default7default
FNDA:31,_RNvMs_NtNtCs26kq9IpCjkh_6ansirs4ansi4ansiNtB4_4Ansi12build_string
FNDA:42,_RNvMs_NtNtCs26kq9IpCjkh_6ansirs4ansi4ansiNtB4_4Ansi10is_default
FNDA:3,_RINvMNtNtCs26kq9IpCjkh_6ansirs4ansi4ansiNtB3_4Ansi7from_fgNtNtNtB7_5color6colors6ColorsEB7_
FNDA:2,_RNvMs_NtNtCs26kq9IpCjkh_6ansirs4ansi4ansiNtB4_4Ansi10paint_text
FNDA:1,_RNvMs_NtNtCs26kq9IpCjkh_6ansirs4ansi4ansiNtB4_4Ansi8clear_bg
FNDA:2,_RNvXs6_NtNtCs26kq9IpCjkh_6ansirs4ansi4ansiNtB5_4AnsiNtNtCs8eo1FWXo0LR_4core3cmp9PartialEq2neB9_
FNDA:30,_RNvXs1_NtNtCs26kq9IpCjkh_6ansirs4ansi4ansiNtB5_4AnsiNtNtCs8eo1FWXo0LR_4core3fmt7Display3fmt
FNDA:1,_RNvMNtNtCs26kq9IpCjkh_6ansirs4ansi4ansiNtB2_4Ansi5green
FNF:41
FNH:38
DA:42,5
DA:56,20
DA:57,20
DA:58,20
DA:59,20
DA:60,20
DA:61,20
DA:62,20
DA:66,17
DA:67,17
DA:68,17
DA:69,17
DA:70,17
DA:71,17
DA:72,17
DA:76,3
DA:77,3
DA:78,3
DA:79,3
DA:80,3
DA:81,3
DA:82,3
DA:86,2
DA:87,2
DA:88,2
DA:92,1
DA:93,1
DA:94,1
DA:98,1
DA:99,1
DA:100,1
DA:104,6
DA:105,6
DA:106,6
DA:114,2
DA:115,2
DA:116,2
DA:117,2
DA:118,2
DA:119,2
DA:120,2
DA:121,2
DA:125,42
DA:126,42
DA:127,42
DA:131,4
DA:132,4
DA:133,4
DA:134,4
DA:135,4
DA:136,4
DA:140,1
DA:141,1
DA:142,1
DA:146,4
DA:147,4
DA:148,4
DA:149,4
DA:150,4
DA:151,4
DA:155,1
DA:156,1
DA:157,1
DA:161,5
DA:162,5
DA:163,5
DA:164,5
DA:165,5
DA:166,5
DA:170,6
DA:171,6
DA:172,6
DA:173,6
DA:174,6
DA:175,6
DA:179,4
DA:180,4
DA:181,4
DA:182,4
DA:183,4
DA:184,4
DA:188,2
DA:189,2
DA:190,2
DA:191,2
DA:192,2
DA:193,2
DA:197,2
DA:198,2
DA:199,2
DA:200,2
DA:201,2
DA:202,2
DA:206,4
DA:207,4
DA:208,4
DA:209,4
DA:210,4
DA:211,4
DA:218,31
DA:219,31
DA:220,6
DA:221,25
DA:222,25
DA:223,25
DA:224,25
DA:225,25
DA:226,25
DA:227,4
DA:228,4
DA:229,21
DA:231,25
DA:232,5
DA:233,1
DA:234,4
DA:235,4
DA:236,4
DA:237,4
DA:238,20
DA:240,25
DA:241,7
DA:242,3
DA:243,4
DA:244,4
DA:245,4
DA:246,4
DA:247,18
DA:249,25
DA:250,2
DA:251,1
DA:252,1
DA:253,1
DA:254,1
DA:255,1
DA:256,23
DA:258,25
DA:259,2
DA:260,1
DA:261,1
DA:262,1
DA:263,1
DA:264,1
DA:265,23
DA:267,25
DA:268,5
DA:269,4
DA:270,4
DA:271,1
DA:272,1
DA:273,1
DA:274,20
DA:276,25
DA:277,14
DA:278,14
DA:279,6
DA:280,8
DA:281,8
DA:282,8
DA:283,14
DA:284,14
DA:285,11
DA:287,25
DA:288,6
DA:289,6
DA:290,4
DA:291,4
DA:292,2
DA:293,2
DA:294,6
DA:295,6
DA:296,19
DA:299,25
DA:300,0
DA:301,25
DA:302,25
DA:303,25
DA:304,31
DA:309,2
DA:310,2
DA:311,1
DA:312,1
DA:313,1
DA:314,1
DA:315,2
DA:319,1
DA:320,1
DA:321,1
DA:325,30
DA:326,30
DA:327,30
DA:335,1
DA:336,1
DA:337,1
DA:338,1
DA:339,1
DA:340,1
DA:341,1
DA:342,1
DA:343,1
DA:344,1
DA:346,1
DA:347,1
DA:348,1
DA:349,1
DA:350,1
DA:351,1
DA:352,1
DA:353,1
DA:354,1
DA:355,1
DA:356,1
DA:357,1
DA:358,1
DA:359,1
DA:360,1
DA:361,1
DA:363,1
DA:364,1
DA:365,1
DA:367,1
DA:368,1
DA:369,1
DA:370,1
DA:371,1
DA:373,1
DA:374,1
DA:375,1
DA:376,1
DA:377,1
DA:378,1
DA:379,1
DA:380,1
DA:381,1
DA:382,1
DA:383,1
DA:384,1
DA:385,1
DA:386,1
DA:387,1
DA:388,1
DA:389,1
DA:390,1
DA:391,1
DA:393,1
DA:394,1
DA:395,1
DA:396,1
DA:397,1
DA:398,1
DA:399,1
DA:400,1
DA:401,1
DA:402,1
DA:403,1
DA:404,1
DA:405,1
DA:406,1
DA:407,1
DA:408,1
DA:409,1
DA:411,1
DA:412,1
DA:413,1
DA:414,1
DA:415,1
DA:416,1
DA:417,1
DA:418,1
DA:419,1
DA:420,1
DA:422,1
DA:423,1
DA:424,1
DA:425,1
DA:426,1
DA:428,1
DA:429,1
DA:430,1
DA:431,1
BRF:0
BRH:0
LF:282
LH:278
end_of_record
SF:C:\Tony\Code\Rust\ansirs\src\ansi\flags.rs
FN:339,_RNvXs4_NtNtCs26kq9IpCjkh_6ansirs4ansi5flagsNtB5_9AnsiFlagsNtNtNtCs8eo1FWXo0LR_4core3ops3bit12BitAndAssign13bitand_assignB9_
FN:127,_RNvMNtNtCs26kq9IpCjkh_6ansirs4ansi5flagsNtB2_9AnsiFlags10intersectsB6_
FN:460,_RNvXse_NtNtCs26kq9IpCjkh_6ansirs4ansi5flagsNtB5_9AnsiFlagsNtNtCs8eo1FWXo0LR_4core3fmt8UpperHex3fmt
FN:33,_RNvXso_NtNtCs26kq9IpCjkh_6ansirs4ansi5flagsNtB5_9AnsiFlagsNtNtCs8eo1FWXo0LR_4core3cmp10PartialOrd11partial_cmpB9_
FN:191,_RNvMNtNtCs26kq9IpCjkh_6ansirs4ansi5flagsNtB2_9AnsiFlags10differenceB6_
FN:364,_RNvXs7_NtNtCs26kq9IpCjkh_6ansirs4ansi5flagsNtB5_9AnsiFlagsNtNtNtCs8eo1FWXo0LR_4core3ops3bit3Not3notB9_
FN:296,_RNvXs_NtNtCs26kq9IpCjkh_6ansirs4ansi5flagsNtB4_9AnsiFlagsNtNtNtCs8eo1FWXo0LR_4core3ops3bit5BitOr5bitorB8_
FN:33,_RINvXsq_NtNtCs26kq9IpCjkh_6ansirs4ansi5flagsNtB6_9AnsiFlagsNtNtCs8eo1FWXo0LR_4core4hash4Hash4hashpEBa_
FN:33,_RNvXsh_NtNtCs26kq9IpCjkh_6ansirs4ansi5flagsNtB5_9AnsiFlagsNtNtCs8eo1FWXo0LR_4core7default7Default7defaultB9_
FN:121,_RNvMNtNtCs26kq9IpCjkh_6ansirs4ansi5flagsNtB2_9AnsiFlags6is_allB6_
FN:347,_RNvXs5_NtNtCs26kq9IpCjkh_6ansirs4ansi5flagsNtB5_9AnsiFlagsNtNtNtCs8eo1FWXo0LR_4core3ops5arith3Sub3subB9_
FN:268,_RNvMNtNtCs26kq9IpCjkh_6ansirs4ansi5flagsNtB2_9AnsiFlags6toggleB6_
FN:505,_RNvYpNtNtNtCs26kq9IpCjkh_6ansirs4ansi5flags9BoolFlags6STRIKEB9_
FN:171,_RNvMNtNtCs26kq9IpCjkh_6ansirs4ansi5flagsNtB2_9AnsiFlags5unionB6_
FN:493,_RNvYpNtNtNtCs26kq9IpCjkh_6ansirs4ansi5flags9BoolFlags6ITALICB9_
FN:80,_RNvMNtNtCs26kq9IpCjkh_6ansirs4ansi5flagsNtB2_9AnsiFlags9from_bitsB6_
FN:322,_RNvXs2_NtNtCs26kq9IpCjkh_6ansirs4ansi5flagsNtB5_9AnsiFlagsNtNtNtCs8eo1FWXo0LR_4core3ops3bit12BitXorAssign13bitxor_assignB9_
FN:260,_RNvMNtNtCs26kq9IpCjkh_6ansirs4ansi5flagsNtB2_9AnsiFlags9remove_toB6_
FN:238,_RNvMNtNtCs26kq9IpCjkh_6ansirs4ansi5flagsNtB2_9AnsiFlags6insertB6_
FN:489,_RNvYpNtNtNtCs26kq9IpCjkh_6ansirs4ansi5flags9BoolFlags9UNDERLINEB9_
FN:445,_RNvXsb_NtNtCs26kq9IpCjkh_6ansirs4ansi5flagsNtB5_9AnsiFlagsNtNtCs8eo1FWXo0LR_4core3fmt6Binary3fmt
FN:330,_RNvXs3_NtNtCs26kq9IpCjkh_6ansirs4ansi5flagsNtB5_9AnsiFlagsNtNtNtCs8eo1FWXo0LR_4core3ops3bit6BitAnd6bitandB9_
FN:152,_RNvMNtNtCs26kq9IpCjkh_6ansirs4ansi5flagsNtB2_9AnsiFlags12intersectionB6_
FN:33,_RNvXsn_NtNtCs26kq9IpCjkh_6ansirs4ansi5flagsNtB5_9AnsiFlagsNtNtCs8eo1FWXo0LR_4core5clone5Clone5cloneB9_
FN:485,_RNvYpNtNtNtCs26kq9IpCjkh_6ansirs4ansi5flags9BoolFlags4BOLDB9_
FN:232,_RNvMNtNtCs26kq9IpCjkh_6ansirs4ansi5flagsNtB2_9AnsiFlags10complementB6_
FN:33,_RNvXsp_NtNtCs26kq9IpCjkh_6ansirs4ansi5flagsNtB5_9AnsiFlagsNtNtCs8eo1FWXo0LR_4core3cmp3Ord3cmpB9_
FN:370,_RINvXs8_NtNtCs26kq9IpCjkh_6ansirs4ansi5flagsNtB6_9AnsiFlagsINtNtNtNtCs8eo1FWXo0LR_4core4iter6traits7collect6ExtendBG_E6extendpEBa_
FN:305,_RNvXs0_NtNtCs26kq9IpCjkh_6ansirs4ansi5flagsNtB5_9AnsiFlagsNtNtNtCs8eo1FWXo0LR_4core3ops3bit11BitOrAssign12bitor_assignB9_
FN:211,_RNvMNtNtCs26kq9IpCjkh_6ansirs4ansi5flagsNtB2_9AnsiFlags20symmetric_differenceB6_
FN:455,_RNvXsd_NtNtCs26kq9IpCjkh_6ansirs4ansi5flagsNtB5_9AnsiFlagsNtNtCs8eo1FWXo0LR_4core3fmt8LowerHex3fmt
FN:109,_RNvMNtNtCs26kq9IpCjkh_6ansirs4ansi5flagsNtB2_9AnsiFlags19from_bits_uncheckedB6_
FN:283,_RNvMNtNtCs26kq9IpCjkh_6ansirs4ansi5flagsNtB2_9AnsiFlags3setB6_
FN:253,_RNvMNtNtCs26kq9IpCjkh_6ansirs4ansi5flagsNtB2_9AnsiFlags6removeB6_
FN:501,_RNvYpNtNtNtCs26kq9IpCjkh_6ansirs4ansi5flags9BoolFlags7REVERSEB9_
FN:377,_RINvXs9_NtNtCs26kq9IpCjkh_6ansirs4ansi5flagsNtB6_9AnsiFlagsINtNtNtNtCs8eo1FWXo0LR_4core4iter6traits7collect12FromIteratorBG_E9from_iterpEBa_
FN:313,_RNvXs1_NtNtCs26kq9IpCjkh_6ansirs4ansi5flagsNtB5_9AnsiFlagsNtNtNtCs8eo1FWXo0LR_4core3ops3bit6BitXor6bitxorB9_
FN:356,_RNvXs6_NtNtCs26kq9IpCjkh_6ansirs4ansi5flagsNtB5_9AnsiFlagsNtNtNtCs8eo1FWXo0LR_4core3ops5arith9SubAssign10sub_assignB9_
FN:245,_RNvMNtNtCs26kq9IpCjkh_6ansirs4ansi5flagsNtB2_9AnsiFlags9insert_toB6_
FN:497,_RNvYpNtNtNtCs26kq9IpCjkh_6ansirs4ansi5flags9BoolFlags5BLINKB9_
FN:91,_RNvMNtNtCs26kq9IpCjkh_6ansirs4ansi5flagsNtB2_9AnsiFlags18from_bits_truncateB6_
FN:450,_RNvXsc_NtNtCs26kq9IpCjkh_6ansirs4ansi5flagsNtB5_9AnsiFlagsNtNtCs8eo1FWXo0LR_4core3fmt5Octal3fmt
FN:558,_RNvXsg_NtNtCs26kq9IpCjkh_6ansirs4ansi5flagsNtB5_9AnsiFlagsNtB5_9BoolFlags6STRIKEB9_
FN:540,_RNvXsg_NtNtCs26kq9IpCjkh_6ansirs4ansi5flagsNtB5_9AnsiFlagsNtB5_9BoolFlags5BLINKB9_
FN:115,_RNvMNtNtCs26kq9IpCjkh_6ansirs4ansi5flagsNtB2_9AnsiFlags8is_emptyB6_
FN:531,_RNvXsg_NtNtCs26kq9IpCjkh_6ansirs4ansi5flagsNtB5_9AnsiFlagsNtB5_9BoolFlags6ITALICB9_
FN:275,_RNvMNtNtCs26kq9IpCjkh_6ansirs4ansi5flagsNtB2_9AnsiFlags9toggle_toB6_
FN:136,_RNvMNtNtCs26kq9IpCjkh_6ansirs4ansi5flagsNtB2_9AnsiFlags8containsB6_
FN:513,_RNvXsg_NtNtCs26kq9IpCjkh_6ansirs4ansi5flagsNtB5_9AnsiFlagsNtB5_9BoolFlags4BOLDB9_
FN:60,_RNvMNtNtCs26kq9IpCjkh_6ansirs4ansi5flagsNtB2_9AnsiFlags3allB6_
FN:33,_RNvXsk_NtNtCs26kq9IpCjkh_6ansirs4ansi5flagsNtB5_9AnsiFlagsNtNtCs8eo1FWXo0LR_4core3cmp9PartialEq2neB9_
FN:385,_RNvXsa_NtNtCs26kq9IpCjkh_6ansirs4ansi5flagsNtB5_9AnsiFlagsNtNtCs8eo1FWXo0LR_4core3fmt5Debug3fmt
FN:549,_RNvXsg_NtNtCs26kq9IpCjkh_6ansirs4ansi5flagsNtB5_9AnsiFlagsNtB5_9BoolFlags7REVERSEB9_
FN:522,_RNvXsg_NtNtCs26kq9IpCjkh_6ansirs4ansi5flagsNtB5_9AnsiFlagsNtB5_9BoolFlags9UNDERLINEB9_
FN:54,_RNvMNtNtCs26kq9IpCjkh_6ansirs4ansi5flagsNtB2_9AnsiFlags5emptyB6_
FN:73,_RNvMNtNtCs26kq9IpCjkh_6ansirs4ansi5flagsNtB2_9AnsiFlags4bitsB6_
FN:33,_RNvXsk_NtNtCs26kq9IpCjkh_6ansirs4ansi5flagsNtB5_9AnsiFlagsNtNtCs8eo1FWXo0LR_4core3cmp9PartialEq2eqB9_
FNDA:0,_RNvXs4_NtNtCs26kq9IpCjkh_6ansirs4ansi5flagsNtB5_9AnsiFlagsNtNtNtCs8eo1FWXo0LR_4core3ops3bit12BitAndAssign13bitand_assignB9_
FNDA:0,_RNvMNtNtCs26kq9IpCjkh_6ansirs4ansi5flagsNtB2_9AnsiFlags10intersectsB6_
FNDA:0,_RNvXse_NtNtCs26kq9IpCjkh_6ansirs4ansi5flagsNtB5_9AnsiFlagsNtNtCs8eo1FWXo0LR_4core3fmt8UpperHex3fmt
FNDA:0,_RNvXso_NtNtCs26kq9IpCjkh_6ansirs4ansi5flagsNtB5_9AnsiFlagsNtNtCs8eo1FWXo0LR_4core3cmp10PartialOrd11partial_cmpB9_
FNDA:0,_RNvMNtNtCs26kq9IpCjkh_6ansirs4ansi5flagsNtB2_9AnsiFlags10differenceB6_
FNDA:0,_RNvXs7_NtNtCs26kq9IpCjkh_6ansirs4ansi5flagsNtB5_9AnsiFlagsNtNtNtCs8eo1FWXo0LR_4core3ops3bit3Not3notB9_
FNDA:0,_RNvXs_NtNtCs26kq9IpCjkh_6ansirs4ansi5flagsNtB4_9AnsiFlagsNtNtNtCs8eo1FWXo0LR_4core3ops3bit5BitOr5bitorB8_
FNDA:0,_RINvXsq_NtNtCs26kq9IpCjkh_6ansirs4ansi5flagsNtB6_9AnsiFlagsNtNtCs8eo1FWXo0LR_4core4hash4Hash4hashpEBa_
FNDA:0,_RNvXsh_NtNtCs26kq9IpCjkh_6ansirs4ansi5flagsNtB5_9AnsiFlagsNtNtCs8eo1FWXo0LR_4core7default7Default7defaultB9_
FNDA:0,_RNvMNtNtCs26kq9IpCjkh_6ansirs4ansi5flagsNtB2_9AnsiFlags6is_allB6_
FNDA:0,_RNvXs5_NtNtCs26kq9IpCjkh_6ansirs4ansi5flagsNtB5_9AnsiFlagsNtNtNtCs8eo1FWXo0LR_4core3ops5arith3Sub3subB9_
FNDA:0,_RNvMNtNtCs26kq9IpCjkh_6ansirs4ansi5flagsNtB2_9AnsiFlags6toggleB6_
FNDA:0,_RNvYpNtNtNtCs26kq9IpCjkh_6ansirs4ansi5flags9BoolFlags6STRIKEB9_
FNDA:0,_RNvMNtNtCs26kq9IpCjkh_6ansirs4ansi5flagsNtB2_9AnsiFlags5unionB6_
FNDA:0,_RNvYpNtNtNtCs26kq9IpCjkh_6ansirs4ansi5flags9BoolFlags6ITALICB9_
FNDA:0,_RNvMNtNtCs26kq9IpCjkh_6ansirs4ansi5flagsNtB2_9AnsiFlags9from_bitsB6_
FNDA:0,_RNvXs2_NtNtCs26kq9IpCjkh_6ansirs4ansi5flagsNtB5_9AnsiFlagsNtNtNtCs8eo1FWXo0LR_4core3ops3bit12BitXorAssign13bitxor_assignB9_
FNDA:0,_RNvMNtNtCs26kq9IpCjkh_6ansirs4ansi5flagsNtB2_9AnsiFlags9remove_toB6_
FNDA:0,_RNvMNtNtCs26kq9IpCjkh_6ansirs4ansi5flagsNtB2_9AnsiFlags6insertB6_
FNDA:0,_RNvYpNtNtNtCs26kq9IpCjkh_6ansirs4ansi5flags9BoolFlags9UNDERLINEB9_
FNDA:0,_RNvXsb_NtNtCs26kq9IpCjkh_6ansirs4ansi5flagsNtB5_9AnsiFlagsNtNtCs8eo1FWXo0LR_4core3fmt6Binary3fmt
FNDA:0,_RNvXs3_NtNtCs26kq9IpCjkh_6ansirs4ansi5flagsNtB5_9AnsiFlagsNtNtNtCs8eo1FWXo0LR_4core3ops3bit6BitAnd6bitandB9_
FNDA:0,_RNvMNtNtCs26kq9IpCjkh_6ansirs4ansi5flagsNtB2_9AnsiFlags12intersectionB6_
FNDA:0,_RNvXsn_NtNtCs26kq9IpCjkh_6ansirs4ansi5flagsNtB5_9AnsiFlagsNtNtCs8eo1FWXo0LR_4core5clone5Clone5cloneB9_
FNDA:0,_RNvYpNtNtNtCs26kq9IpCjkh_6ansirs4ansi5flags9BoolFlags4BOLDB9_
FNDA:0,_RNvMNtNtCs26kq9IpCjkh_6ansirs4ansi5flagsNtB2_9AnsiFlags10complementB6_
FNDA:0,_RNvXsp_NtNtCs26kq9IpCjkh_6ansirs4ansi5flagsNtB5_9AnsiFlagsNtNtCs8eo1FWXo0LR_4core3cmp3Ord3cmpB9_
FNDA:0,_RINvXs8_NtNtCs26kq9IpCjkh_6ansirs4ansi5flagsNtB6_9AnsiFlagsINtNtNtNtCs8eo1FWXo0LR_4core4iter6traits7collect6ExtendBG_E6extendpEBa_
FNDA:0,_RNvXs0_NtNtCs26kq9IpCjkh_6ansirs4ansi5flagsNtB5_9AnsiFlagsNtNtNtCs8eo1FWXo0LR_4core3ops3bit11BitOrAssign12bitor_assignB9_
FNDA:0,_RNvMNtNtCs26kq9IpCjkh_6ansirs4ansi5flagsNtB2_9AnsiFlags20symmetric_differenceB6_
FNDA:0,_RNvXsd_NtNtCs26kq9IpCjkh_6ansirs4ansi5flagsNtB5_9AnsiFlagsNtNtCs8eo1FWXo0LR_4core3fmt8LowerHex3fmt
FNDA:0,_RNvMNtNtCs26kq9IpCjkh_6ansirs4ansi5flagsNtB2_9AnsiFlags19from_bits_uncheckedB6_
FNDA:0,_RNvMNtNtCs26kq9IpCjkh_6ansirs4ansi5flagsNtB2_9AnsiFlags3setB6_
FNDA:0,_RNvMNtNtCs26kq9IpCjkh_6ansirs4ansi5flagsNtB2_9AnsiFlags6removeB6_
FNDA:0,_RNvYpNtNtNtCs26kq9IpCjkh_6ansirs4ansi5flags9BoolFlags7REVERSEB9_
FNDA:0,_RINvXs9_NtNtCs26kq9IpCjkh_6ansirs4ansi5flagsNtB6_9AnsiFlagsINtNtNtNtCs8eo1FWXo0LR_4core4iter6traits7collect12FromIteratorBG_E9from_iterpEBa_
FNDA:0,_RNvXs1_NtNtCs26kq9IpCjkh_6ansirs4ansi5flagsNtB5_9AnsiFlagsNtNtNtCs8eo1FWXo0LR_4core3ops3bit6BitXor6bitxorB9_
FNDA:0,_RNvXs6_NtNtCs26kq9IpCjkh_6ansirs4ansi5flagsNtB5_9AnsiFlagsNtNtNtCs8eo1FWXo0LR_4core3ops5arith9SubAssign10sub_assignB9_
FNDA:0,_RNvMNtNtCs26kq9IpCjkh_6ansirs4ansi5flagsNtB2_9AnsiFlags9insert_toB6_
FNDA:0,_RNvYpNtNtNtCs26kq9IpCjkh_6ansirs4ansi5flags9BoolFlags5BLINKB9_
FNDA:0,_RNvMNtNtCs26kq9IpCjkh_6ansirs4ansi5flagsNtB2_9AnsiFlags18from_bits_truncateB6_
FNDA:0,_RNvXsc_NtNtCs26kq9IpCjkh_6ansirs4ansi5flagsNtB5_9AnsiFlagsNtNtCs8eo1FWXo0LR_4core3fmt5Octal3fmt
FNDA:0,_RNvXsg_NtNtCs26kq9IpCjkh_6ansirs4ansi5flagsNtB5_9AnsiFlagsNtB5_9BoolFlags6STRIKEB9_
FNDA:0,_RNvXsg_NtNtCs26kq9IpCjkh_6ansirs4ansi5flagsNtB5_9AnsiFlagsNtB5_9BoolFlags5BLINKB9_
FNDA:18,_RNvMNtNtCs26kq9IpCjkh_6ansirs4ansi5flagsNtB2_9AnsiFlags8is_emptyB6_
FNDA:0,_RNvXsg_NtNtCs26kq9IpCjkh_6ansirs4ansi5flagsNtB5_9AnsiFlagsNtB5_9BoolFlags6ITALICB9_
FNDA:23,_RNvMNtNtCs26kq9IpCjkh_6ansirs4ansi5flagsNtB2_9AnsiFlags9toggle_toB6_
FNDA:150,_RNvMNtNtCs26kq9IpCjkh_6ansirs4ansi5flagsNtB2_9AnsiFlags8containsB6_
FNDA:0,_RNvXsg_NtNtCs26kq9IpCjkh_6ansirs4ansi5flagsNtB5_9AnsiFlagsNtB5_9BoolFlags4BOLDB9_
FNDA:0,_RNvMNtNtCs26kq9IpCjkh_6ansirs4ansi5flagsNtB2_9AnsiFlags3allB6_
FNDA:0,_RNvXsk_NtNtCs26kq9IpCjkh_6ansirs4ansi5flagsNtB5_9AnsiFlagsNtNtCs8eo1FWXo0LR_4core3cmp9PartialEq2neB9_
FNDA:0,_RNvXsa_NtNtCs26kq9IpCjkh_6ansirs4ansi5flagsNtB5_9AnsiFlagsNtNtCs8eo1FWXo0LR_4core3fmt5Debug3fmt
FNDA:0,_RNvXsg_NtNtCs26kq9IpCjkh_6ansirs4ansi5flagsNtB5_9AnsiFlagsNtB5_9BoolFlags7REVERSEB9_
FNDA:0,_RNvXsg_NtNtCs26kq9IpCjkh_6ansirs4ansi5flagsNtB5_9AnsiFlagsNtB5_9BoolFlags9UNDERLINEB9_
FNDA:60,_RNvMNtNtCs26kq9IpCjkh_6ansirs4ansi5flagsNtB2_9AnsiFlags5emptyB6_
FNDA:36,_RNvMNtNtCs26kq9IpCjkh_6ansirs4ansi5flagsNtB2_9AnsiFlags4bitsB6_
FNDA:2,_RNvXsk_NtNtCs26kq9IpCjkh_6ansirs4ansi5flagsNtB5_9AnsiFlagsNtNtCs8eo1FWXo0LR_4core3cmp9PartialEq2eqB9_
FNF:56
FNH:6
DA:33,2
DA:54,60
DA:55,60
DA:56,60
DA:60,0
DA:61,0
DA:62,0
DA:63,0
DA:64,0
DA:65,0
DA:66,0
DA:67,0
DA:68,0
DA:69,0
DA:73,36
DA:74,36
DA:75,36
DA:80,0
DA:81,0
DA:82,0
DA:84,0
DA:86,0
DA:91,0
DA:92,0
DA:93,0
DA:94,0
DA:95,0
DA:109,0
DA:110,0
DA:111,0
DA:115,18
DA:116,18
DA:117,18
DA:121,0
DA:122,0
DA:123,0
DA:127,0
DA:128,0
DA:129,0
DA:130,0
DA:131,0
DA:132,0
DA:136,150
DA:137,150
DA:138,150
DA:152,0
DA:153,0
DA:154,0
DA:155,0
DA:156,0
DA:171,0
DA:172,0
DA:173,0
DA:174,0
DA:175,0
DA:191,0
DA:192,0
DA:193,0
DA:194,0
DA:195,0
DA:211,0
DA:212,0
DA:213,0
DA:214,0
DA:215,0
DA:232,0
DA:233,0
DA:234,0
DA:238,0
DA:239,0
DA:240,0
DA:245,0
DA:246,0
DA:247,0
DA:248,0
DA:249,0
DA:253,0
DA:254,0
DA:255,0
DA:260,0
DA:261,0
DA:262,0
DA:263,0
DA:264,0
DA:268,0
DA:269,0
DA:270,0
DA:275,23
DA:276,23
DA:277,23
DA:278,23
DA:279,23
DA:283,0
DA:284,0
DA:285,0
DA:286,0
DA:287,0
DA:288,0
DA:289,0
DA:296,0
DA:297,0
DA:298,0
DA:299,0
DA:300,0
DA:305,0
DA:306,0
DA:307,0
DA:313,0
DA:314,0
DA:315,0
DA:316,0
DA:317,0
DA:322,0
DA:323,0
DA:324,0
DA:330,0
DA:331,0
DA:332,0
DA:333,0
DA:334,0
DA:339,0
DA:340,0
DA:341,0
DA:347,0
DA:348,0
DA:349,0
DA:350,0
DA:351,0
DA:356,0
DA:357,0
DA:358,0
DA:364,0
DA:365,0
DA:366,0
DA:370,0
DA:371,0
DA:372,0
DA:374,0
DA:377,0
DA:378,0
DA:379,0
DA:380,0
DA:381,0
DA:385,0
DA:386,0
DA:387,0
DA:388,0
DA:389,0
DA:390,0
DA:391,0
DA:392,0
DA:393,0
DA:394,0
DA:395,0
DA:396,0
DA:397,0
DA:398,0
DA:399,0
DA:400,0
DA:401,0
DA:402,0
DA:403,0
DA:404,0
DA:405,0
DA:406,0
DA:407,0
DA:408,0
DA:409,0
DA:410,0
DA:411,0
DA:412,0
DA:413,0
DA:414,0
DA:415,0
DA:416,0
DA:417,0
DA:418,0
DA:419,0
DA:420,0
DA:421,0
DA:422,0
DA:423,0
DA:424,0
DA:425,0
DA:426,0
DA:427,0
DA:428,0
DA:429,0
DA:430,0
DA:431,0
DA:432,0
DA:433,0
DA:434,0
DA:435,0
DA:436,0
DA:437,0
DA:438,0
DA:439,0
DA:440,0
DA:441,0
DA:442,0
DA:445,0
DA:446,0
DA:447,0
DA:450,0
DA:451,0
DA:452,0
DA:455,0
DA:456,0
DA:457,0
DA:460,0
DA:461,0
DA:462,0
DA:485,0
DA:486,0
DA:487,0
DA:489,0
DA:490,0
DA:491,0
DA:493,0
DA:494,0
DA:495,0
DA:497,0
DA:498,0
DA:499,0
DA:501,0
DA:502,0
DA:503,0
DA:505,0
DA:506,0
DA:507,0
DA:513,0
DA:514,0
DA:515,0
DA:517,0
DA:519,0
DA:522,0
DA:523,0
DA:524,0
DA:526,0
DA:528,0
DA:531,0
DA:532,0
DA:533,0
DA:535,0
DA:537,0
DA:540,0
DA:541,0
DA:542,0
DA:544,0
DA:546,0
DA:549,0
DA:550,0
DA:551,0
DA:553,0
DA:555,0
DA:558,0
DA:559,0
DA:560,0
DA:562,0
DA:564,0
BRF:0
BRH:0
LF:266
LH:18
end_of_record
SF:C:\Tony\Code\Rust\ansirs\src\ansi\traits.rs
FN:50,_RNvXs3_NtNtCs26kq9IpCjkh_6ansirs4ansi6traitsNtNtB7_4ansi4AnsiINtNtCs8eo1FWXo0LR_4core7convert4FromNtNtNtB9_5color6colors6ColorsE4from
FN:32,_RNvXs0_NtNtCs26kq9IpCjkh_6ansirs4ansi6traitsRNtNtB7_4ansi4AnsiNtB5_8IntoAnsi9into_ansi
FN:44,_RNvXs2_NtNtCs26kq9IpCjkh_6ansirs4ansi6traitsNtNtB7_4ansi4AnsiINtNtCs8eo1FWXo0LR_4core7convert4FromRNtNtNtB9_5color5color5ColorE4from
FN:56,_RNvXs4_NtNtCs26kq9IpCjkh_6ansirs4ansi6traitsNtNtB7_4ansi4AnsiINtNtCs8eo1FWXo0LR_4core7convert4FromRNtNtNtB9_5color6colors6ColorsE4from
FN:66,_RNCNvNtNtNtCs26kq9IpCjkh_6ansirs4ansi6traits5tests15ansi_from_color0B9_
FN:67,_RNvNtNtNtCs26kq9IpCjkh_6ansirs4ansi6traits5testss_15ansi_from_color
FN:20,_RNvXNtNtCs26kq9IpCjkh_6ansirs4ansi6traitsNCNvNtB6_5testss_17style_text_inputs0NtB2_8IntoAnsi9into_ansiB6_
FN:20,_RNvXNtNtCs26kq9IpCjkh_6ansirs4ansi6traitsNvNtB6_5tests20empty_style_functionNtB2_8IntoAnsi9into_ansiB6_
FN:38,_RNvXs1_NtNtCs26kq9IpCjkh_6ansirs4ansi6traitsNtNtB7_4ansi4AnsiINtNtCs8eo1FWXo0LR_4core7convert4FromNtNtNtB9_5color5color5ColorE4from
FN:26,_RNvXs_NtNtCs26kq9IpCjkh_6ansirs4ansi6traitsNtNtB6_4ansi4AnsiNtB4_8IntoAnsi9into_ansi
FNDA:0,_RNvXs3_NtNtCs26kq9IpCjkh_6ansirs4ansi6traitsNtNtB7_4ansi4AnsiINtNtCs8eo1FWXo0LR_4core7convert4FromNtNtNtB9_5color6colors6ColorsE4from
FNDA:0,_RNvXs0_NtNtCs26kq9IpCjkh_6ansirs4ansi6traitsRNtNtB7_4ansi4AnsiNtB5_8IntoAnsi9into_ansi
FNDA:0,_RNvXs2_NtNtCs26kq9IpCjkh_6ansirs4ansi6traitsNtNtB7_4ansi4AnsiINtNtCs8eo1FWXo0LR_4core7convert4FromRNtNtNtB9_5color5color5ColorE4from
FNDA:0,_RNvXs4_NtNtCs26kq9IpCjkh_6ansirs4ansi6traitsNtNtB7_4ansi4AnsiINtNtCs8eo1FWXo0LR_4core7convert4FromRNtNtNtB9_5color6colors6ColorsE4from
FNDA:1,_RNCNvNtNtNtCs26kq9IpCjkh_6ansirs4ansi6traits5tests15ansi_from_color0B9_
FNDA:1,_RNvNtNtNtCs26kq9IpCjkh_6ansirs4ansi6traits5testss_15ansi_from_color
FNDA:1,_RNvXNtNtCs26kq9IpCjkh_6ansirs4ansi6traitsNCNvNtB6_5testss_17style_text_inputs0NtB2_8IntoAnsi9into_ansiB6_
FNDA:2,_RNvXNtNtCs26kq9IpCjkh_6ansirs4ansi6traitsNvNtB6_5tests20empty_style_functionNtB2_8IntoAnsi9into_ansiB6_
FNDA:1,_RNvXs1_NtNtCs26kq9IpCjkh_6ansirs4ansi6traitsNtNtB7_4ansi4AnsiINtNtCs8eo1FWXo0LR_4core7convert4FromNtNtNtB9_5color5color5ColorE4from
FNDA:5,_RNvXs_NtNtCs26kq9IpCjkh_6ansirs4ansi6traitsNtNtB6_4ansi4AnsiNtB4_8IntoAnsi9into_ansi
FNF:9
FNH:5
DA:20,3
DA:21,3
DA:22,3
DA:26,5
DA:27,5
DA:28,5
DA:32,0
DA:33,0
DA:34,0
DA:38,1
DA:39,1
DA:40,1
DA:44,0
DA:45,0
DA:46,0
DA:50,0
DA:51,0
DA:52,0
DA:56,0
DA:57,0
DA:58,0
DA:66,1
DA:67,1
DA:68,1
DA:69,1
DA:70,1
BRF:0
BRH:0
LF:26
LH:14
end_of_record
SF:C:\Tony\Code\Rust\ansirs\src\color\color.rs
FN:10,_RNvXs8_NtNtCs26kq9IpCjkh_6ansirs5color5colorNtB5_5ColorNtNtCs8eo1FWXo0LR_4core3cmp3Ord3cmpB9_
FN:10,_RINvXs6_NtNtCs26kq9IpCjkh_6ansirs5color5colorNtB6_5ColorNtNtCs8eo1FWXo0LR_4core4hash4Hash4hashpEBa_
FN:10,_RNvXs7_NtNtCs26kq9IpCjkh_6ansirs5color5colorNtB5_5ColorNtNtCs8eo1FWXo0LR_4core3cmp10PartialOrd11partial_cmpB9_
FN:10,_RNvXs0_NtNtCs26kq9IpCjkh_6ansirs5color5colorNtB5_5ColorNtNtCs8eo1FWXo0LR_4core5clone5Clone5cloneB9_
FN:102,_RNvNtNtNtCs26kq9IpCjkh_6ansirs5color5color5testss_3hex
FN:107,_RNCNvNtNtNtCs26kq9IpCjkh_6ansirs5color5color5tests10components0B9_
FN:108,_RNvNtNtNtCs26kq9IpCjkh_6ansirs5color5color5testss_10components
FN:101,_RNCNvNtNtNtCs26kq9IpCjkh_6ansirs5color5color5tests3hex0B9_
FN:67,_RNvMNtNtCs26kq9IpCjkh_6ansirs5color5colorNtB2_5Color6as_hex
FN:10,_RNvXs3_NtNtCs26kq9IpCjkh_6ansirs5color5colorNtB5_5ColorNtNtCs8eo1FWXo0LR_4core3cmp9PartialEq2neB9_
FN:87,_RNvMNtNtCs26kq9IpCjkh_6ansirs5color5colorNtB2_5Color1b
FN:49,_RNCINvMNtNtCs26kq9IpCjkh_6ansirs5color5colorNtB5_5Color8from_hexReEs_0B9_
FN:21,_RNvNvMNtNtCs26kq9IpCjkh_6ansirs5color5colorNtB4_5Color8from_hex7convert
FN:15,_RNvMNtNtCs26kq9IpCjkh_6ansirs5color5colorNtB2_5Color8from_rgb
FN:20,_RINvMNtNtCs26kq9IpCjkh_6ansirs5color5colorNtB3_5Color8from_hexReEB7_
FN:10,_RNvXs_NtNtCs26kq9IpCjkh_6ansirs5color5colorNtB4_5ColorNtNtCs8eo1FWXo0LR_4core3fmt5Debug3fmt
FN:77,_RNvMNtNtCs26kq9IpCjkh_6ansirs5color5colorNtB2_5Color1r
FN:46,_RNCINvMNtNtCs26kq9IpCjkh_6ansirs5color5colorNtB5_5Color8from_hexReE0B9_
FN:55,_RNCINvMNtNtCs26kq9IpCjkh_6ansirs5color5colorNtB5_5Color8from_hexReEs0_0B9_
FN:10,_RNvXs3_NtNtCs26kq9IpCjkh_6ansirs5color5colorNtB5_5ColorNtNtCs8eo1FWXo0LR_4core3cmp9PartialEq2eqB9_
FN:72,_RNvMNtNtCs26kq9IpCjkh_6ansirs5color5colorNtB2_5Color3rgb
FN:82,_RNvMNtNtCs26kq9IpCjkh_6ansirs5color5colorNtB2_5Color1g
FN:91,_RNvMNtNtCs26kq9IpCjkh_6ansirs5color5colorNtB2_5Color9into_ansi
FNDA:0,_RNvXs8_NtNtCs26kq9IpCjkh_6ansirs5color5colorNtB5_5ColorNtNtCs8eo1FWXo0LR_4core3cmp3Ord3cmpB9_
FNDA:0,_RINvXs6_NtNtCs26kq9IpCjkh_6ansirs5color5colorNtB6_5ColorNtNtCs8eo1FWXo0LR_4core4hash4Hash4hashpEBa_
FNDA:0,_RNvXs7_NtNtCs26kq9IpCjkh_6ansirs5color5colorNtB5_5ColorNtNtCs8eo1FWXo0LR_4core3cmp10PartialOrd11partial_cmpB9_
FNDA:0,_RNvXs0_NtNtCs26kq9IpCjkh_6ansirs5color5colorNtB5_5ColorNtNtCs8eo1FWXo0LR_4core5clone5Clone5cloneB9_
FNDA:1,_RNvNtNtNtCs26kq9IpCjkh_6ansirs5color5color5testss_3hex
FNDA:1,_RNCNvNtNtNtCs26kq9IpCjkh_6ansirs5color5color5tests10components0B9_
FNDA:1,_RNvNtNtNtCs26kq9IpCjkh_6ansirs5color5color5testss_10components
FNDA:1,_RNCNvNtNtNtCs26kq9IpCjkh_6ansirs5color5color5tests3hex0B9_
FNDA:1,_RNvMNtNtCs26kq9IpCjkh_6ansirs5color5colorNtB2_5Color6as_hex
FNDA:0,_RNvXs3_NtNtCs26kq9IpCjkh_6ansirs5color5colorNtB5_5ColorNtNtCs8eo1FWXo0LR_4core3cmp9PartialEq2neB9_
FNDA:1,_RNvMNtNtCs26kq9IpCjkh_6ansirs5color5colorNtB2_5Color1b
FNDA:0,_RNCINvMNtNtCs26kq9IpCjkh_6ansirs5color5colorNtB5_5Color8from_hexReEs_0B9_
FNDA:15,_RNvNvMNtNtCs26kq9IpCjkh_6ansirs5color5colorNtB4_5Color8from_hex7convert
FNDA:29,_RNvMNtNtCs26kq9IpCjkh_6ansirs5color5colorNtB2_5Color8from_rgb
FNDA:9,_RINvMNtNtCs26kq9IpCjkh_6ansirs5color5colorNtB3_5Color8from_hexReEB7_
FNDA:0,_RNvXs_NtNtCs26kq9IpCjkh_6ansirs5color5colorNtB4_5ColorNtNtCs8eo1FWXo0LR_4core3fmt5Debug3fmt
FNDA:1,_RNvMNtNtCs26kq9IpCjkh_6ansirs5color5colorNtB2_5Color1r
FNDA:0,_RNCINvMNtNtCs26kq9IpCjkh_6ansirs5color5colorNtB5_5Color8from_hexReE0B9_
FNDA:0,_RNCINvMNtNtCs26kq9IpCjkh_6ansirs5color5colorNtB5_5Color8from_hexReEs0_0B9_
FNDA:1,_RNvXs3_NtNtCs26kq9IpCjkh_6ansirs5color5colorNtB5_5ColorNtNtCs8eo1FWXo0LR_4core3cmp9PartialEq2eqB9_
FNDA:23,_RNvMNtNtCs26kq9IpCjkh_6ansirs5color5colorNtB2_5Color3rgb
FNDA:1,_RNvMNtNtCs26kq9IpCjkh_6ansirs5color5colorNtB2_5Color1g
FNDA:2,_RNvMNtNtCs26kq9IpCjkh_6ansirs5color5colorNtB2_5Color9into_ansi
FNF:22
FNH:14
DA:10,1
DA:15,29
DA:16,29
DA:17,29
DA:20,9
DA:21,15
DA:22,15
DA:23,15
DA:24,9
DA:25,9
DA:26,9
DA:27,9
DA:28,8
DA:29,8
DA:31,9
DA:32,4
DA:33,5
DA:34,5
DA:35,5
DA:36,0
DA:37,5
DA:38,5
DA:39,5
DA:40,5
DA:41,5
DA:42,5
DA:43,5
DA:44,19
DA:45,15
DA:46,12
DA:47,0
DA:48,12
DA:49,12
DA:50,0
DA:51,12
DA:53,12
DA:55,3
DA:56,0
DA:57,3
DA:59,3
DA:63,4
DA:64,9
DA:67,1
DA:68,1
DA:69,1
DA:72,23
DA:73,23
DA:74,23
DA:77,1
DA:78,1
DA:79,1
DA:82,1
DA:83,1
DA:84,1
DA:87,1
DA:88,1
DA:89,1
DA:91,2
DA:92,2
DA:93,2
DA:101,1
DA:102,1
DA:103,1
DA:104,1
DA:105,1
DA:107,1
DA:108,1
DA:109,1
DA:110,1
DA:111,1
DA:112,1
DA:113,1
BRF:0
BRH:0
LF:86
LH:71
end_of_record
SF:C:\Tony\Code\Rust\ansirs\src\color\colors.rs
FN:10,_RNvXs0_NtNtCs26kq9IpCjkh_6ansirs5color6colorsNtB5_6ColorsNtNtCs8eo1FWXo0LR_4core5clone5Clone5cloneB9_
FN:10,_RINvXs9_NtNtCs26kq9IpCjkh_6ansirs5color6colorsNtB6_6ColorsNtNtCs8eo1FWXo0LR_4core4hash4Hash4hashpEBa_
FN:10,_RNvXs7_NtNtCs26kq9IpCjkh_6ansirs5color6colorsNtB5_6ColorsNtNtCs8eo1FWXo0LR_4core3cmp10PartialOrd11partial_cmpB9_
FN:10,_RNvXs2_NtNtCs26kq9IpCjkh_6ansirs5color6colorsNtB5_6ColorsNtNtCs8eo1FWXo0LR_4core3fmt5Debug3fmt
FN:10,_RNvXs4_NtNtCs26kq9IpCjkh_6ansirs5color6colorsNtB5_6ColorsNtNtCs8eo1FWXo0LR_4core3cmp9PartialEq2eqB9_
FN:623,_RNvXs_NtNtCs26kq9IpCjkh_6ansirs5color6colorsNtB4_6ColorsNtNtNtNtCs8eo1FWXo0LR_4core4iter6traits7collect12IntoIterator9into_iter
FN:160,_RNvMNtNtCs26kq9IpCjkh_6ansirs5color6colorsNtB2_6Colors4name
FN:613,_RNvMNtNtCs26kq9IpCjkh_6ansirs5color6colorsNtB2_6Colors3all
FN:10,_RNvXs8_NtNtCs26kq9IpCjkh_6ansirs5color6colorsNtB5_6ColorsNtNtCs8eo1FWXo0LR_4core3cmp3Ord3cmpB9_
FN:309,_RNvMNtNtCs26kq9IpCjkh_6ansirs5color6colorsNtB2_6Colors4next
FN:608,_RNvMNtNtCs26kq9IpCjkh_6ansirs5color6colorsNtB2_6Colors10into_color
FN:459,_RNvMNtNtCs26kq9IpCjkh_6ansirs5color6colorsNtB2_6Colors3rgb
FNDA:0,_RNvXs0_NtNtCs26kq9IpCjkh_6ansirs5color6colorsNtB5_6ColorsNtNtCs8eo1FWXo0LR_4core5clone5Clone5cloneB9_
FNDA:0,_RINvXs9_NtNtCs26kq9IpCjkh_6ansirs5color6colorsNtB6_6ColorsNtNtCs8eo1FWXo0LR_4core4hash4Hash4hashpEBa_
FNDA:0,_RNvXs7_NtNtCs26kq9IpCjkh_6ansirs5color6colorsNtB5_6ColorsNtNtCs8eo1FWXo0LR_4core3cmp10PartialOrd11partial_cmpB9_
FNDA:0,_RNvXs2_NtNtCs26kq9IpCjkh_6ansirs5color6colorsNtB5_6ColorsNtNtCs8eo1FWXo0LR_4core3fmt5Debug3fmt
FNDA:0,_RNvXs4_NtNtCs26kq9IpCjkh_6ansirs5color6colorsNtB5_6ColorsNtNtCs8eo1FWXo0LR_4core3cmp9PartialEq2eqB9_
FNDA:0,_RNvXs_NtNtCs26kq9IpCjkh_6ansirs5color6colorsNtB4_6ColorsNtNtNtNtCs8eo1FWXo0LR_4core4iter6traits7collect12IntoIterator9into_iter
FNDA:0,_RNvMNtNtCs26kq9IpCjkh_6ansirs5color6colorsNtB2_6Colors4name
FNDA:0,_RNvMNtNtCs26kq9IpCjkh_6ansirs5color6colorsNtB2_6Colors3all
FNDA:0,_RNvXs8_NtNtCs26kq9IpCjkh_6ansirs5color6colorsNtB5_6ColorsNtNtCs8eo1FWXo0LR_4core3cmp3Ord3cmpB9_
FNDA:0,_RNvMNtNtCs26kq9IpCjkh_6ansirs5color6colorsNtB2_6Colors4next
FNDA:1,_RNvMNtNtCs26kq9IpCjkh_6ansirs5color6colorsNtB2_6Colors10into_color
FNDA:4,_RNvMNtNtCs26kq9IpCjkh_6ansirs5color6colorsNtB2_6Colors3rgb
FNF:12
FNH:2
DA:10,0
DA:160,0
DA:161,0
DA:162,0
DA:163,0
DA:164,0
DA:165,0
DA:166,0
DA:167,0
DA:168,0
DA:169,0
DA:170,0
DA:171,0
DA:172,0
DA:173,0
DA:174,0
DA:175,0
DA:176,0
DA:177,0
DA:178,0
DA:179,0
DA:180,0
DA:181,0
DA:182,0
DA:183,0
DA:184,0
DA:185,0
DA:186,0
DA:187,0
DA:188,0
DA:189,0
DA:190,0
DA:191,0
DA:192,0
DA:193,0
DA:194,0
DA:195,0
DA:196,0
DA:197,0
DA:198,0
DA:199,0
DA:200,0
DA:201,0
DA:202,0
DA:203,0
DA:204,0
DA:205,0
DA:206,0
DA:207,0
DA:208,0
DA:209,0
DA:210,0
DA:211,0
DA:212,0
DA:213,0
DA:214,0
DA:215,0
DA:216,0
DA:217,0
DA:218,0
DA:219,0
DA:220,0
DA:221,0
DA:222,0
DA:223,0
DA:224,0
DA:225,0
DA:226,0
DA:227,0
DA:228,0
DA:229,0
DA:230,0
DA:231,0
DA:232,0
DA:233,0
DA:234,0
DA:235,0
DA:236,0
DA:237,0
DA:238,0
DA:239,0
DA:240,0
DA:241,0
DA:242,0
DA:243,0
DA:244,0
DA:245,0
DA:246,0
DA:247,0
DA:248,0
DA:249,0
DA:250,0
DA:251,0
DA:252,0
DA:253,0
DA:254,0
DA:255,0
DA:256,0
DA:257,0
DA:258,0
DA:259,0
DA:260,0
DA:261,0
DA:262,0
DA:263,0
DA:264,0
DA:265,0
DA:266,0
DA:267,0
DA:268,0
DA:269,0
DA:270,0
DA:271,0
DA:272,0
DA:273,0
DA:274,0
DA:275,0
DA:276,0
DA:277,0
DA:278,0
DA:279,0
DA:280,0
DA:281,0
DA:282,0
DA:283,0
DA:284,0
DA:285,0
DA:286,0
DA:287,0
DA:288,0
DA:289,0
DA:290,0
DA:291,0
DA:292,0
DA:293,0
DA:294,0
DA:295,0
DA:296,0
DA:297,0
DA:298,0
DA:299,0
DA:300,0
DA:301,0
DA:302,0
DA:303,0
DA:304,0
DA:305,0
DA:307,0
DA:309,0
DA:310,0
DA:311,0
DA:312,0
DA:313,0
DA:314,0
DA:315,0
DA:316,0
DA:317,0
DA:318,0
DA:319,0
DA:320,0
DA:321,0
DA:322,0
DA:323,0
DA:324,0
DA:325,0
DA:326,0
DA:327,0
DA:328,0
DA:329,0
DA:330,0
DA:331,0
DA:332,0
DA:333,0
DA:334,0
DA:335,0
DA:336,0
DA:337,0
DA:338,0
DA:339,0
DA:340,0
DA:341,0
DA:342,0
DA:343,0
DA:344,0
DA:345,0
DA:346,0
DA:347,0
DA:348,0
DA:349,0
DA:350,0
DA:351,0
DA:352,0
DA:353,0
DA:354,0
DA:355,0
DA:356,0
DA:357,0
DA:358,0
DA:359,0
DA:360,0
DA:361,0
DA:362,0
DA:363,0
DA:364,0
DA:365,0
DA:366,0
DA:367,0
DA:368,0
DA:369,0
DA:370,0
DA:371,0
DA:372,0
DA:373,0
DA:374,0
DA:375,0
DA:376,0
DA:377,0
DA:378,0
DA:379,0
DA:380,0
DA:381,0
DA:382,0
DA:383,0
DA:384,0
DA:385,0
DA:386,0
DA:387,0
DA:388,0
DA:389,0
DA:390,0
DA:391,0
DA:392,0
DA:393,0
DA:394,0
DA:395,0
DA:396,0
DA:397,0
DA:398,0
DA:399,0
DA:400,0
DA:401,0
DA:402,0
DA:403,0
DA:404,0
DA:405,0
DA:406,0
DA:407,0
DA:408,0
DA:409,0
DA:410,0
DA:411,0
DA:412,0
DA:413,0
DA:414,0
DA:415,0
DA:416,0
DA:417,0
DA:418,0
DA:419,0
DA:420,0
DA:421,0
DA:422,0
DA:423,0
DA:424,0
DA:425,0
DA:426,0
DA:427,0
DA:428,0
DA:429,0
DA:430,0
DA:431,0
DA:432,0
DA:433,0
DA:434,0
DA:435,0
DA:436,0
DA:437,0
DA:438,0
DA:439,0
DA:440,0
DA:441,0
DA:442,0
DA:443,0
DA:444,0
DA:445,0
DA:446,0
DA:447,0
DA:448,0
DA:449,0
DA:450,0
DA:451,0
DA:452,0
DA:453,0
DA:454,0
DA:456,0
DA:459,4
DA:460,4
DA:461,0
DA:462,0
DA:463,0
DA:464,0
DA:465,0
DA:466,1
DA:467,0
DA:468,0
DA:469,0
DA:470,0
DA:471,0
DA:472,0
DA:473,0
DA:474,0
DA:475,0
DA:476,0
DA:477,0
DA:478,0
DA:479,0
DA:480,0
DA:481,0
DA:482,0
DA:483,0
DA:484,3
DA:485,0
DA:486,0
DA:487,0
DA:488,0
DA:489,0
DA:490,0
DA:491,0
DA:492,0
DA:493,0
DA:494,0
DA:495,0
DA:496,0
DA:497,0
DA:498,0
DA:499,0
DA:500,0
DA:501,0
DA:502,0
DA:503,0
DA:504,0
DA:505,0
DA:506,0
DA:507,0
DA:508,0
DA:509,0
DA:510,0
DA:511,0
DA:512,0
DA:513,0
DA:514,0
DA:515,0
DA:516,0
DA:517,0
DA:518,0
DA:519,0
DA:520,0
DA:521,0
DA:522,0
DA:523,0
DA:524,0
DA:525,0
DA:526,0
DA:527,0
DA:528,0
DA:529,0
DA:530,0
DA:531,0
DA:532,0
DA:533,0
DA:534,0
DA:535,0
DA:536,0
DA:537,0
DA:538,0
DA:539,0
DA:540,0
DA:541,0
DA:542,0
DA:543,0
DA:544,0
DA:545,0
DA:546,0
DA:547,0
DA:548,0
DA:549,0
DA:550,0
DA:551,0
DA:552,0
DA:553,0
DA:554,0
DA:555,0
DA:556,0
DA:557,0
DA:558,0
DA:559,0
DA:560,0
DA:561,0
DA:562,0
DA:563,0
DA:564,0
DA:565,0
DA:566,0
DA:567,0
DA:568,0
DA:569,0
DA:570,0
DA:571,0
DA:572,0
DA:573,0
DA:574,0
DA:575,0
DA:576,0
DA:577,0
DA:578,0
DA:579,0
DA:580,0
DA:581,0
DA:582,0
DA:583,0
DA:584,0
DA:585,0
DA:586,0
DA:587,0
DA:588,0
DA:589,0
DA:590,0
DA:591,0
DA:592,0
DA:593,0
DA:594,0
DA:595,0
DA:596,0
DA:597,0
DA:598,0
DA:599,0
DA:600,0
DA:601,0
DA:602,0
DA:603,0
DA:604,0
DA:606,4
DA:608,1
DA:609,1
DA:610,1
DA:611,1
DA:613,0
DA:614,0
DA:615,0
DA:623,0
DA:624,0
DA:625,0
BRF:0
BRH:0
LF:457
LH:9
end_of_record
SF:C:\Tony\Code\Rust\ansirs\src\color\error.rs
FN:21,_RNvXNtNtCs26kq9IpCjkh_6ansirs5color5errorNtB2_15ColorParseErrorNtNtCs8eo1FWXo0LR_4core3fmt7Display3fmt
FN:8,_RNvXs3_NtNtCs26kq9IpCjkh_6ansirs5color5errorNtB5_15ColorParseErrorNtNtCs8eo1FWXo0LR_4core3cmp9PartialEq2neB9_
FN:8,_RNvXs1_NtNtCs26kq9IpCjkh_6ansirs5color5errorNtB5_15ColorParseErrorNtNtCs8eo1FWXo0LR_4core5clone5Clone5cloneB9_
FN:8,_RNvXs3_NtNtCs26kq9IpCjkh_6ansirs5color5errorNtB5_15ColorParseErrorNtNtCs8eo1FWXo0LR_4core3cmp9PartialEq2eqB9_
FN:8,_RNvXs0_NtNtCs26kq9IpCjkh_6ansirs5color5errorNtB5_15ColorParseErrorNtNtCs8eo1FWXo0LR_4core3fmt5Debug3fmt
FNDA:0,_RNvXNtNtCs26kq9IpCjkh_6ansirs5color5errorNtB2_15ColorParseErrorNtNtCs8eo1FWXo0LR_4core3fmt7Display3fmt
FNDA:0,_RNvXs3_NtNtCs26kq9IpCjkh_6ansirs5color5errorNtB5_15ColorParseErrorNtNtCs8eo1FWXo0LR_4core3cmp9PartialEq2neB9_
FNDA:0,_RNvXs1_NtNtCs26kq9IpCjkh_6ansirs5color5errorNtB5_15ColorParseErrorNtNtCs8eo1FWXo0LR_4core5clone5Clone5cloneB9_
FNDA:0,_RNvXs3_NtNtCs26kq9IpCjkh_6ansirs5color5errorNtB5_15ColorParseErrorNtNtCs8eo1FWXo0LR_4core3cmp9PartialEq2eqB9_
FNDA:4,_RNvXs0_NtNtCs26kq9IpCjkh_6ansirs5color5errorNtB5_15ColorParseErrorNtNtCs8eo1FWXo0LR_4core3fmt5Debug3fmt
FNF:4
FNH:1
DA:8,4
DA:21,0
DA:22,0
DA:23,0
DA:25,0
DA:27,0
DA:28,0
DA:30,0
DA:32,0
BRF:0
BRH:0
LF:11
LH:1
end_of_record
SF:C:\Tony\Code\Rust\ansirs\src\color\mod.rs
FN:22,_RNvXNtNtCs26kq9IpCjkh_6ansirs5color4iterNtB2_10ColorsIterNtNtCs8eo1FWXo0LR_4core7default7Default7default
FN:47,_RNvXs0_NtNtCs26kq9IpCjkh_6ansirs5color4iterNtB5_10ColorsIterNtNtNtNtCs8eo1FWXo0LR_4core4iter6traits8iterator8Iterator4next
FN:33,_RNvMs_NtNtCs26kq9IpCjkh_6ansirs5color4iterNtB4_10ColorsIter3new
FN:49,_RNCNvXs0_NtNtCs26kq9IpCjkh_6ansirs5color4iterNtB7_10ColorsIterNtNtNtNtCs8eo1FWXo0LR_4core4iter6traits8iterator8Iterator4next0Bb_
FN:37,_RNvMs_NtNtCs26kq9IpCjkh_6ansirs5color4iterNtB4_10ColorsIter13starting_with
FN:94,_RNvNtNtCs26kq9IpCjkh_6ansirs5color5testss_28hex_convert_too_small_panics
FN:74,_RNvNtNtCs26kq9IpCjkh_6ansirs5color5testss_13hex_convert_1
FN:106,_RNvNtNtCs26kq9IpCjkh_6ansirs5color5testss_27hex_convert_bad_char_panics
FN:92,_RNCNvNtNtCs26kq9IpCjkh_6ansirs5color5tests28hex_convert_too_small_panics0B7_
FN:98,_RNCNvNtNtCs26kq9IpCjkh_6ansirs5color5tests26hex_convert_too_big_panics0B7_
FN:100,_RNvNtNtCs26kq9IpCjkh_6ansirs5color5testss_26hex_convert_too_big_panics
FN:83,_RNCNvNtNtCs26kq9IpCjkh_6ansirs5color5tests19hex_convert_unicode0B7_
FN:104,_RNCNvNtNtCs26kq9IpCjkh_6ansirs5color5tests27hex_convert_bad_char_panics0B7_
FN:84,_RNvNtNtCs26kq9IpCjkh_6ansirs5color5testss_19hex_convert_unicode
FN:73,_RNCNvNtNtCs26kq9IpCjkh_6ansirs5color5tests13hex_convert_10B7_
FNDA:0,_RNvXNtNtCs26kq9IpCjkh_6ansirs5color4iterNtB2_10ColorsIterNtNtCs8eo1FWXo0LR_4core7default7Default7default
FNDA:0,_RNvXs0_NtNtCs26kq9IpCjkh_6ansirs5color4iterNtB5_10ColorsIterNtNtNtNtCs8eo1FWXo0LR_4core4iter6traits8iterator8Iterator4next
FNDA:0,_RNvMs_NtNtCs26kq9IpCjkh_6ansirs5color4iterNtB4_10ColorsIter3new
FNDA:0,_RNCNvXs0_NtNtCs26kq9IpCjkh_6ansirs5color4iterNtB7_10ColorsIterNtNtNtNtCs8eo1FWXo0LR_4core4iter6traits8iterator8Iterator4next0Bb_
FNDA:0,_RNvMs_NtNtCs26kq9IpCjkh_6ansirs5color4iterNtB4_10ColorsIter13starting_with
FNDA:1,_RNvNtNtCs26kq9IpCjkh_6ansirs5color5testss_28hex_convert_too_small_panics
FNDA:1,_RNvNtNtCs26kq9IpCjkh_6ansirs5color5testss_13hex_convert_1
FNDA:1,_RNvNtNtCs26kq9IpCjkh_6ansirs5color5testss_27hex_convert_bad_char_panics
FNDA:1,_RNCNvNtNtCs26kq9IpCjkh_6ansirs5color5tests28hex_convert_too_small_panics0B7_
FNDA:1,_RNCNvNtNtCs26kq9IpCjkh_6ansirs5color5tests26hex_convert_too_big_panics0B7_
FNDA:1,_RNvNtNtCs26kq9IpCjkh_6ansirs5color5testss_26hex_convert_too_big_panics
FNDA:1,_RNCNvNtNtCs26kq9IpCjkh_6ansirs5color5tests19hex_convert_unicode0B7_
FNDA:1,_RNCNvNtNtCs26kq9IpCjkh_6ansirs5color5tests27hex_convert_bad_char_panics0B7_
FNDA:1,_RNvNtNtCs26kq9IpCjkh_6ansirs5color5testss_19hex_convert_unicode
FNDA:1,_RNCNvNtNtCs26kq9IpCjkh_6ansirs5color5tests13hex_convert_10B7_
FNF:15
FNH:10
DA:22,0
DA:23,0
DA:24,0
DA:25,0
DA:26,0
DA:33,0
DA:34,0
DA:35,0
DA:37,0
DA:38,0
DA:39,0
DA:40,0
DA:41,0
DA:47,0
DA:48,0
DA:49,0
DA:50,0
DA:51,0
DA:52,0
DA:54,0
DA:56,0
DA:57,0
DA:58,0
DA:59,0
DA:73,1
DA:74,1
DA:75,1
DA:76,1
DA:77,1
DA:78,1
DA:79,1
DA:80,1
DA:81,1
DA:83,1
DA:84,1
DA:85,1
DA:86,1
DA:87,1
DA:88,1
DA:89,1
DA:90,1
DA:92,1
DA:94,1
DA:95,1
DA:96,1
DA:98,1
DA:100,1
DA:101,1
DA:102,1
DA:104,1
DA:106,1
DA:107,1
DA:108,1
BRF:0
BRH:0
LF:55
LH:29
end_of_record
SF:C:\Tony\Code\Rust\ansirs\src\color\traits.rs
FN:52,_RNvXs4_NtNtCs26kq9IpCjkh_6ansirs5color6traitsNtNtB7_5color5ColorNtNtNtB9_4ansi6traits8IntoAnsi9into_ansi
FN:22,_RNvXs_NtNtCs26kq9IpCjkh_6ansirs5color6traitsRNtNtB6_6colors6ColorsNtB4_7ToColor8to_color
FN:34,_RNvXs1_NtNtCs26kq9IpCjkh_6ansirs5color6traitsRNtNtB7_5color5ColorNtB5_7ToColor8to_color
FN:46,_RNvXs3_NtNtCs26kq9IpCjkh_6ansirs5color6traitsRNtNtB7_6colors6ColorsNtNtNtB9_4ansi6traits8IntoAnsi9into_ansi
FN:58,_RNvXs5_NtNtCs26kq9IpCjkh_6ansirs5color6traitsRNtNtB7_5color5ColorNtNtNtB9_4ansi6traits8IntoAnsi9into_ansi
FN:79,_RNvXs8_NtNtCs26kq9IpCjkh_6ansirs5color6traitsNtNtB7_5color5ColorINtNtCs8eo1FWXo0LR_4core7convert7TryFromReE8try_from
FN:28,_RNvXs0_NtNtCs26kq9IpCjkh_6ansirs5color6traitsNtNtB7_5color5ColorNtB5_7ToColor8to_color
FN:64,_RNvXs6_NtNtCs26kq9IpCjkh_6ansirs5color6traitsNtNtB7_5color5ColorINtNtCs8eo1FWXo0LR_4core7convert4FromThhhEE4from
FN:40,_RNvXs2_NtNtCs26kq9IpCjkh_6ansirs5color6traitsNtNtB7_6colors6ColorsNtNtNtB9_4ansi6traits8IntoAnsi9into_ansi
FN:16,_RNvXNtNtCs26kq9IpCjkh_6ansirs5color6traitsNtNtB4_6colors6ColorsNtB2_7ToColor8to_color
FN:70,_RNvXs7_NtNtCs26kq9IpCjkh_6ansirs5color6traitsThhhENtB5_7ToColor8to_color
FNDA:0,_RNvXs4_NtNtCs26kq9IpCjkh_6ansirs5color6traitsNtNtB7_5color5ColorNtNtNtB9_4ansi6traits8IntoAnsi9into_ansi
FNDA:0,_RNvXs_NtNtCs26kq9IpCjkh_6ansirs5color6traitsRNtNtB6_6colors6ColorsNtB4_7ToColor8to_color
FNDA:0,_RNvXs1_NtNtCs26kq9IpCjkh_6ansirs5color6traitsRNtNtB7_5color5ColorNtB5_7ToColor8to_color
FNDA:0,_RNvXs3_NtNtCs26kq9IpCjkh_6ansirs5color6traitsRNtNtB7_6colors6ColorsNtNtNtB9_4ansi6traits8IntoAnsi9into_ansi
FNDA:0,_RNvXs5_NtNtCs26kq9IpCjkh_6ansirs5color6traitsRNtNtB7_5color5ColorNtNtNtB9_4ansi6traits8IntoAnsi9into_ansi
FNDA:0,_RNvXs8_NtNtCs26kq9IpCjkh_6ansirs5color6traitsNtNtB7_5color5ColorINtNtCs8eo1FWXo0LR_4core7convert7TryFromReE8try_from
FNDA:3,_RNvXs0_NtNtCs26kq9IpCjkh_6ansirs5color6traitsNtNtB7_5color5ColorNtB5_7ToColor8to_color
FNDA:3,_RNvXs6_NtNtCs26kq9IpCjkh_6ansirs5color6traitsNtNtB7_5color5ColorINtNtCs8eo1FWXo0LR_4core7convert4FromThhhEE4from
FNDA:2,_RNvXs2_NtNtCs26kq9IpCjkh_6ansirs5color6traitsNtNtB7_6colors6ColorsNtNtNtB9_4ansi6traits8IntoAnsi9into_ansi
FNDA:3,_RNvXNtNtCs26kq9IpCjkh_6ansirs5color6traitsNtNtB4_6colors6ColorsNtB2_7ToColor8to_color
FNDA:22,_RNvXs7_NtNtCs26kq9IpCjkh_6ansirs5color6traitsThhhENtB5_7ToColor8to_color
FNF:11
FNH:5
DA:16,3
DA:17,3
DA:18,3
DA:22,0
DA:23,0
DA:24,0
DA:28,3
DA:29,3
DA:30,3
DA:34,0
DA:35,0
DA:36,0
DA:40,2
DA:41,2
DA:42,2
DA:46,0
DA:47,0
DA:48,0
DA:52,0
DA:53,0
DA:54,0
DA:58,0
DA:59,0
DA:60,0
DA:64,3
DA:65,3
DA:66,3
DA:70,22
DA:71,22
DA:72,22
DA:79,0
DA:80,0
DA:81,0
BRF:0
BRH:0
LF:33
LH:15
end_of_record
SF:C:\Tony\Code\Rust\ansirs\src\lib.rs
FN:1,_RNvCs26kq9IpCjkh_6ansirs4main
FN:33,_RNvNtCs26kq9IpCjkh_6ansirs5tests20empty_style_function
FN:37,_RNCNvNtCs26kq9IpCjkh_6ansirs5tests14storing_styles0B5_
FN:114,_RNCNvNtCs26kq9IpCjkh_6ansirs5tests12color_inputs0B5_
FN:38,_RNvNtCs26kq9IpCjkh_6ansirs5testss_14storing_styles
FN:82,_RNvNtCs26kq9IpCjkh_6ansirs5testss_17style_text_inputs
FN:81,_RNCNvNtCs26kq9IpCjkh_6ansirs5tests17style_text_inputs0B5_
FN:87,_RNCNvNtCs26kq9IpCjkh_6ansirs5testss_17style_text_inputs0B5_
FN:65,_RNvNtCs26kq9IpCjkh_6ansirs5testss_16style_text_basic
FN:115,_RNvNtCs26kq9IpCjkh_6ansirs5testss_12color_inputs
FN:64,_RNCNvNtCs26kq9IpCjkh_6ansirs5tests16style_text_basic0B5_
FNDA:1,_RNvCs26kq9IpCjkh_6ansirs4main
FNDA:2,_RNvNtCs26kq9IpCjkh_6ansirs5tests20empty_style_function
FNDA:1,_RNCNvNtCs26kq9IpCjkh_6ansirs5tests14storing_styles0B5_
FNDA:1,_RNCNvNtCs26kq9IpCjkh_6ansirs5tests12color_inputs0B5_
FNDA:1,_RNvNtCs26kq9IpCjkh_6ansirs5testss_14storing_styles
FNDA:1,_RNvNtCs26kq9IpCjkh_6ansirs5testss_17style_text_inputs
FNDA:1,_RNCNvNtCs26kq9IpCjkh_6ansirs5tests17style_text_inputs0B5_
FNDA:1,_RNCNvNtCs26kq9IpCjkh_6ansirs5testss_17style_text_inputs0B5_
FNDA:1,_RNvNtCs26kq9IpCjkh_6ansirs5testss_16style_text_basic
FNDA:1,_RNvNtCs26kq9IpCjkh_6ansirs5testss_12color_inputs
FNDA:1,_RNCNvNtCs26kq9IpCjkh_6ansirs5tests16style_text_basic0B5_
FNF:11
FNH:11
DA:1,1
DA:33,2
DA:34,2
DA:35,2
DA:37,1
DA:38,1
DA:39,1
DA:40,1
DA:41,1
DA:42,1
DA:43,1
DA:44,1
DA:45,1
DA:46,1
DA:47,1
DA:48,1
DA:49,1
DA:50,1
DA:51,1
DA:52,1
DA:53,1
DA:54,1
DA:55,1
DA:56,1
DA:57,1
DA:58,1
DA:59,1
DA:60,1
DA:61,1
DA:62,1
DA:64,1
DA:65,1
DA:66,1
DA:67,1
DA:68,1
DA:69,1
DA:70,1
DA:72,1
DA:73,1
DA:74,1
DA:75,1
DA:76,1
DA:77,1
DA:78,1
DA:79,1
DA:81,1
DA:82,1
DA:83,1
DA:84,1
DA:85,1
DA:86,1
DA:87,1
DA:88,1
DA:89,1
DA:90,1
DA:91,1
DA:92,1
DA:93,1
DA:94,1
DA:95,1
DA:96,1
DA:97,1
DA:98,1
DA:99,1
DA:100,1
DA:101,1
DA:102,1
DA:103,1
DA:104,1
DA:105,1
DA:106,1
DA:107,1
DA:108,1
DA:109,1
DA:110,1
DA:111,1
DA:112,1
DA:114,1
DA:115,1
DA:116,1
DA:117,1
DA:118,1
DA:119,1
BRF:0
BRH:0
LF:85
LH:85
end_of_record
SF:C:\Tony\Code\Rust\ansirs\src\styled\mod.rs
FN:27,_RINvNtCs26kq9IpCjkh_6ansirs6styled12styled_printppEB4_
FN:31,_RINvNtCs26kq9IpCjkh_6ansirs6styled14styled_printlnppEB4_
FN:43,_RINvXININtCs26kq9IpCjkh_6ansirs6styled0pEpNtB6_6Styled5stylepEB8_
FN:12,_RINvNtCs26kq9IpCjkh_6ansirs6styled10style_textNCNvNtB4_5testss_17style_text_inputs0RNtNtCsgJthmj86JhK_5alloc6string6StringEB4_
FN:12,_RINvNtCs26kq9IpCjkh_6ansirs6styled10style_textNtNtNtB4_4ansi4ansi4AnsiRNtNtCsgJthmj86JhK_5alloc6string6StringEB4_
FN:12,_RINvNtCs26kq9IpCjkh_6ansirs6styled10style_textNtNtNtB4_5color6colors6ColorsRNtNtCsgJthmj86JhK_5alloc6string6StringEB4_
FN:12,_RINvNtCs26kq9IpCjkh_6ansirs6styled10style_textNvNtB4_5tests20empty_style_functionRNtNtCsgJthmj86JhK_5alloc6string6StringEB4_
FNDA:0,_RINvNtCs26kq9IpCjkh_6ansirs6styled12styled_printppEB4_
FNDA:0,_RINvNtCs26kq9IpCjkh_6ansirs6styled14styled_printlnppEB4_
FNDA:0,_RINvXININtCs26kq9IpCjkh_6ansirs6styled0pEpNtB6_6Styled5stylepEB8_
FNDA:1,_RINvNtCs26kq9IpCjkh_6ansirs6styled10style_textNCNvNtB4_5testss_17style_text_inputs0RNtNtCsgJthmj86JhK_5alloc6string6StringEB4_
FNDA:5,_RINvNtCs26kq9IpCjkh_6ansirs6styled10style_textNtNtNtB4_4ansi4ansi4AnsiRNtNtCsgJthmj86JhK_5alloc6string6StringEB4_
FNDA:1,_RINvNtCs26kq9IpCjkh_6ansirs6styled10style_textNtNtNtB4_5color6colors6ColorsRNtNtCsgJthmj86JhK_5alloc6string6StringEB4_
FNDA:2,_RINvNtCs26kq9IpCjkh_6ansirs6styled10style_textNvNtB4_5tests20empty_style_functionRNtNtCsgJthmj86JhK_5alloc6string6StringEB4_
FNF:4
FNH:1
DA:12,9
DA:13,9
DA:14,9
DA:15,9
DA:16,0
DA:18,9
DA:19,9
DA:20,4
DA:22,5
DA:25,9
DA:27,0
DA:28,0
DA:29,0
DA:31,0
DA:32,0
DA:33,0
DA:43,0
DA:44,0
DA:45,0
BRF:0
BRH:0
LF:19
LH:9
end_of_record